target datalayout = "e-m:e-p270:32:32-p271:32:32-p272:64:64-i64:64-i128:128-f80:128-n8:16:32:64-S128"
target triple = "x86_64-pc-linux-gnu"

; Function Attrs: nounwind uwtable
define internal i32 @dtls1_discard_fragment_body(ptr noundef %0, i64 noundef %1) #0 {
  %3 = alloca i32, align 4
  %4 = alloca ptr, align 8
  %5 = alloca i64, align 8
  %6 = alloca [256 x i8], align 16
  %7 = alloca i64, align 8
  %8 = alloca i32, align 4
  %9 = alloca i32, align 4
  store ptr %0, ptr %4, align 8, !tbaa !18
  store i64 %1, ptr %5, align 8, !tbaa !53
  call void @llvm.lifetime.start.p0(i64 256, ptr %6) #8
  br label %10

10:                                               ; preds = %37, %2
  %11 = load i64, ptr %5, align 8, !tbaa !53
  %12 = icmp ugt i64 %11, 0
  br i1 %12, label %13, label %38

13:                                               ; preds = %10
  call void @llvm.lifetime.start.p0(i64 8, ptr %7) #8
  %14 = load i64, ptr %5, align 8, !tbaa !53
  %15 = icmp ult i64 %14, 256
  br i1 %15, label %16, label %18

16:                                               ; preds = %13
  %17 = load i64, ptr %5, align 8, !tbaa !53
  br label %19

18:                                               ; preds = %13
  br label %19

19:                                               ; preds = %18, %16
  %20 = phi i64 [ %17, %16 ], [ 256, %18 ]
  store i64 %20, ptr %7, align 8, !tbaa !53
  call void @llvm.lifetime.start.p0(i64 4, ptr %8) #8
  %21 = load ptr, ptr %4, align 8, !tbaa !18
  %22 = getelementptr inbounds [256 x i8], ptr %6, i64 0, i64 0
  %23 = load i64, ptr %7, align 8, !tbaa !53
  %24 = trunc i64 %23 to i32
  %25 = call i32 @dtls1_read_bytes(ptr noundef %21, i32 noundef 22, ptr noundef %22, i32 noundef %24, i32 noundef 0)
  store i32 %25, ptr %8, align 4, !tbaa !20
  %26 = load i32, ptr %8, align 4, !tbaa !20
  %27 = load i64, ptr %7, align 8, !tbaa !53
  %28 = trunc i64 %27 to i32
  %29 = icmp ne i32 %26, %28
  br i1 %29, label %30, label %31

30:                                               ; preds = %19
  store i32 0, ptr %3, align 4
  store i32 1, ptr %9, align 4
  br label %35

31:                                               ; preds = %19
  %32 = load i64, ptr %7, align 8, !tbaa !53
  %33 = load i64, ptr %5, align 8, !tbaa !53
  %34 = sub i64 %33, %32
  store i64 %34, ptr %5, align 8, !tbaa !53
  store i32 0, ptr %9, align 4
  br label %35

35:                                               ; preds = %31, %30
  call void @llvm.lifetime.end.p0(i64 4, ptr %8) #8
  call void @llvm.lifetime.end.p0(i64 8, ptr %7) #8
  %36 = load i32, ptr %9, align 4
  switch i32 %36, label %39 [
    i32 0, label %37
  ]

37:                                               ; preds = %35
  br label %10, !llvm.loop !119

38:                                               ; preds = %10
  store i32 1, ptr %3, align 4
  store i32 1, ptr %9, align 4
  br label %39

39:                                               ; preds = %38, %35
  call void @llvm.lifetime.end.p0(i64 256, ptr %6) #8
  %40 = load i32, ptr %3, align 4
  ret i32 %40
}