; Function Attrs: nounwind uwtable
define internal fastcc range(i32 0, 2) i32 @dtls1_discard_fragment_body(ptr noundef %0, i64 noundef range(i64 0, 65536) %1) unnamed_addr #2 {
  %3 = alloca [256 x i8], align 16
  call void @llvm.lifetime.start.p0(i64 256, ptr nonnull %3) #13
  br label %4

4:                                                ; preds = %5, %2
  %.011 = phi i64 [ %1, %2 ], [ %9, %5 ]
  %.not = icmp eq i64 %.011, 0
  br i1 %.not, label %10, label %5

5:                                                ; preds = %4
  %6 = call i64 @llvm.umin.i64(i64 %.011, i64 256)
  %7 = trunc nuw nsw i64 %6 to i32
  %8 = call i32 @dtls1_read_bytes(ptr noundef %0, i32 noundef 22, ptr noundef nonnull %3, i32 noundef %7, i32 noundef 0) #13
  %.not13 = icmp eq i32 %8, %7
  %9 = sub i64 %.011, %6
  br i1 %.not13, label %4, label %10, !llvm.loop !87

10:                                               ; preds = %4, %5
  %.2 = phi i32 [ 0, %5 ], [ 1, %4 ]
  call void @llvm.lifetime.end.p0(i64 256, ptr nonnull %3) #13
  ret i32 %.2
}